target datalayout = "e-m:e-p270:32:32-p271:32:32-p272:64:64-i64:64-i128:128-f80:128-n8:16:32:64-S128"
target triple = "x86_64-pc-linux-gnu"

%struct.ht_config_st = type { ptr, ptr, ptr, i64, i32, i32 }
%struct.ossl_namemap_st = type { i8, ptr, ptr, ptr, i32 }

@.str = private unnamed_addr constant [33 x i8] c"../openssl/crypto/core_namemap.c\00", align 1

; Function Attrs: inlinehint nounwind uwtable
define internal void @sk_NAMES_pop_free(ptr noundef %0, ptr noundef %1) #3 {
  %3 = alloca ptr, align 8
  %4 = alloca ptr, align 8
  store ptr %0, ptr %3, align 8, !tbaa !26
  store ptr %1, ptr %4, align 8, !tbaa !20
  %5 = load ptr, ptr %3, align 8, !tbaa !26
  %6 = load ptr, ptr %4, align 8, !tbaa !20
  call void @OPENSSL_sk_pop_free(ptr noundef %5, ptr noundef %6)
  ret void
}

; Function Attrs: nounwind uwtable
define void @ossl_namemap_free(ptr noundef %0) #0 {
  %2 = alloca ptr, align 8
  store ptr %0, ptr %2, align 8, !tbaa !8
  %3 = load ptr, ptr %2, align 8, !tbaa !8
  %4 = icmp eq ptr %3, null
  br i1 %4, label %11, label %5

5:                                                ; preds = %1
  %6 = load ptr, ptr %2, align 8, !tbaa !8
  %7 = load i8, ptr %6, align 8
  %8 = and i8 %7, 1
  %9 = zext i8 %8 to i32
  %10 = icmp ne i32 %9, 0
  br i1 %10, label %11, label %12

11:                                               ; preds = %5, %1
  br label %23

12:                                               ; preds = %5
  %13 = load ptr, ptr %2, align 8, !tbaa !8
  %14 = getelementptr inbounds nuw %struct.ossl_namemap_st, ptr %13, i32 0, i32 3
  %15 = load ptr, ptr %14, align 8, !tbaa !19
  call void @sk_NAMES_pop_free(ptr noundef %15, ptr noundef @names_free)
  %16 = load ptr, ptr %2, align 8, !tbaa !8
  %17 = getelementptr inbounds nuw %struct.ossl_namemap_st, ptr %16, i32 0, i32 1
  %18 = load ptr, ptr %17, align 8, !tbaa !18
  call void @ossl_ht_free(ptr noundef %18)
  %19 = load ptr, ptr %2, align 8, !tbaa !8
  %20 = getelementptr inbounds nuw %struct.ossl_namemap_st, ptr %19, i32 0, i32 2
  %21 = load ptr, ptr %20, align 8, !tbaa !14
  call void @CRYPTO_THREAD_lock_free(ptr noundef %21)
  %22 = load ptr, ptr %2, align 8, !tbaa !8
  call void @CRYPTO_free(ptr noundef %22, ptr noundef @.str, i32 noundef 545)
  br label %23

23:                                               ; preds = %12, %11
  ret void
}

; Function Attrs: inlinehint nounwind uwtable
define internal ptr @sk_NAMES_new_null() #3 {
  %1 = call ptr @OPENSSL_sk_new_null()
  ret ptr %1
}

; Function Attrs: nounwind uwtable
define ptr @ossl_namemap_new(ptr noundef %0) #0 {
  %2 = alloca ptr, align 8
  %3 = alloca ptr, align 8
  %4 = alloca ptr, align 8
  %5 = alloca %struct.ht_config_st, align 8
  %6 = alloca i32, align 4
  store ptr %0, ptr %3, align 8, !tbaa !3
  call void @llvm.lifetime.start.p0(i64 8, ptr %4) #7
  call void @llvm.lifetime.start.p0(i64 40, ptr %5) #7
  call void @llvm.memset.p0.i64(ptr align 8 %5, i8 0, i64 40, i1 false)
  %7 = getelementptr inbounds %struct.ht_config_st, ptr %5, i32 0, i32 3
  store i64 2048, ptr %7, align 8
  %8 = getelementptr inbounds %struct.ht_config_st, ptr %5, i32 0, i32 4
  store i32 1, ptr %8, align 8
  %9 = getelementptr inbounds %struct.ht_config_st, ptr %5, i32 0, i32 5
  store i32 1, ptr %9, align 4
  %10 = load ptr, ptr %3, align 8, !tbaa !3
  %11 = getelementptr inbounds nuw %struct.ht_config_st, ptr %5, i32 0, i32 0
  store ptr %10, ptr %11, align 8, !tbaa !10
  %12 = call noalias ptr @CRYPTO_zalloc(i64 noundef 40, ptr noundef @.str, i32 noundef 516)
  store ptr %12, ptr %4, align 8, !tbaa !8
  %13 = icmp eq ptr %12, null
  br i1 %13, label %14, label %15

14:                                               ; preds = %1
  br label %35

15:                                               ; preds = %1
  %16 = call ptr @CRYPTO_THREAD_lock_new()
  %17 = load ptr, ptr %4, align 8, !tbaa !8
  %18 = getelementptr inbounds nuw %struct.ossl_namemap_st, ptr %17, i32 0, i32 2
  store ptr %16, ptr %18, align 8, !tbaa !14
  %19 = icmp eq ptr %16, null
  br i1 %19, label %20, label %21

20:                                               ; preds = %15
  br label %35

21:                                               ; preds = %15
  %22 = call ptr @ossl_ht_new(ptr noundef %5)
  %23 = load ptr, ptr %4, align 8, !tbaa !8
  %24 = getelementptr inbounds nuw %struct.ossl_namemap_st, ptr %23, i32 0, i32 1
  store ptr %22, ptr %24, align 8, !tbaa !18
  %25 = icmp eq ptr %22, null
  br i1 %25, label %26, label %27

26:                                               ; preds = %21
  br label %35

27:                                               ; preds = %21
  %28 = call ptr @sk_NAMES_new_null()
  %29 = load ptr, ptr %4, align 8, !tbaa !8
  %30 = getelementptr inbounds nuw %struct.ossl_namemap_st, ptr %29, i32 0, i32 3
  store ptr %28, ptr %30, align 8, !tbaa !19
  %31 = icmp eq ptr %28, null
  br i1 %31, label %32, label %33

32:                                               ; preds = %27
  br label %35

33:                                               ; preds = %27
  %34 = load ptr, ptr %4, align 8, !tbaa !8
  store ptr %34, ptr %2, align 8
  store i32 1, ptr %6, align 4
  br label %37

35:                                               ; preds = %32, %26, %20, %14
  %36 = load ptr, ptr %4, align 8, !tbaa !8
  call void @ossl_namemap_free(ptr noundef %36)
  store ptr null, ptr %2, align 8
  store i32 1, ptr %6, align 4
  br label %37

37:                                               ; preds = %35, %33
  call void @llvm.lifetime.end.p0(i64 40, ptr %5) #7
  call void @llvm.lifetime.end.p0(i64 8, ptr %4) #7
  %38 = load ptr, ptr %2, align 8
  ret ptr %38
}