; Function Attrs: nounwind uwtable
define ptr @ossl_namemap_new(ptr noundef %0) local_unnamed_addr #0 {
  %2 = alloca %struct.ht_config_st, align 8
  call void @llvm.lifetime.start.p0(i64 40, ptr nonnull %2) #6
  %3 = getelementptr inbounds nuw i8, ptr %2, i64 8
  call void @llvm.memset.p0.i64(ptr noundef nonnull align 8 dereferenceable(40) %3, i8 0, i64 16, i1 false)
  %4 = getelementptr inbounds nuw i8, ptr %2, i64 24
  store i64 2048, ptr %4, align 8
  %5 = getelementptr inbounds nuw i8, ptr %2, i64 32
  store i32 1, ptr %5, align 8
  %6 = getelementptr inbounds nuw i8, ptr %2, i64 36
  store i32 1, ptr %6, align 4
  store ptr %0, ptr %2, align 8, !tbaa !3
  %7 = tail call noalias ptr @CRYPTO_zalloc(i64 noundef 40, ptr noundef nonnull @.str, i32 noundef 516) #6
  %8 = icmp eq ptr %7, null
  br i1 %8, label %ossl_namemap_free.exit, label %9

9:                                                ; preds = %1
  %10 = tail call ptr @CRYPTO_THREAD_lock_new() #6
  %11 = getelementptr inbounds nuw i8, ptr %7, i64 16
  store ptr %10, ptr %11, align 8, !tbaa !11
  %12 = icmp eq ptr %10, null
  br i1 %12, label %21, label %13

13:                                               ; preds = %9
  %14 = call ptr @ossl_ht_new(ptr noundef nonnull %2) #6
  %15 = getelementptr inbounds nuw i8, ptr %7, i64 8
  store ptr %14, ptr %15, align 8, !tbaa !15
  %16 = icmp eq ptr %14, null
  br i1 %16, label %21, label %17

17:                                               ; preds = %13
  %18 = call ptr @OPENSSL_sk_new_null() #6
  %19 = getelementptr inbounds nuw i8, ptr %7, i64 24
  store ptr %18, ptr %19, align 8, !tbaa !16
  %20 = icmp eq ptr %18, null
  br i1 %20, label %21, label %ossl_namemap_free.exit

21:                                               ; preds = %17, %13, %9
  %22 = load i8, ptr %7, align 8
  %23 = and i8 %22, 1
  %.not.i = icmp eq i8 %23, 0
  br i1 %.not.i, label %24, label %ossl_namemap_free.exit

24:                                               ; preds = %21
  %25 = getelementptr inbounds nuw i8, ptr %7, i64 24
  %26 = load ptr, ptr %25, align 8, !tbaa !16
  call void @OPENSSL_sk_pop_free(ptr noundef %26, ptr noundef nonnull @names_free) #6
  %27 = getelementptr inbounds nuw i8, ptr %7, i64 8
  %28 = load ptr, ptr %27, align 8, !tbaa !15
  call void @ossl_ht_free(ptr noundef %28) #6
  call void @CRYPTO_THREAD_lock_free(ptr noundef %10) #6
  call void @CRYPTO_free(ptr noundef nonnull %7, ptr noundef nonnull @.str, i32 noundef 545) #6
  br label %ossl_namemap_free.exit

ossl_namemap_free.exit:                           ; preds = %24, %21, %1, %17
  %.0 = phi ptr [ %7, %17 ], [ null, %1 ], [ null, %21 ], [ null, %24 ]
  call void @llvm.lifetime.end.p0(i64 40, ptr nonnull %2) #6
  ret ptr %.0
}